; Function Attrs: nounwind uwtable
define range(i32 0, 2) i32 @ossl_qrx_provide_secret(ptr noundef %0, i32 noundef %1, i32 noundef %2, ptr noundef %3, ptr noundef %4, i64 noundef %5) local_unnamed_addr #0 {
  %7 = icmp ugt i32 %1, 3
  br i1 %7, label %qrx_requeue_deferred.exit, label %8

8:                                                ; preds = %6
  %9 = getelementptr inbounds nuw i8, ptr %0, i64 168
  %10 = load ptr, ptr %0, align 8, !tbaa !15
  %11 = getelementptr inbounds nuw i8, ptr %0, i64 8
  %12 = load ptr, ptr %11, align 8, !tbaa !24
  %13 = getelementptr inbounds nuw i8, ptr %0, i64 1056
  %14 = load i8, ptr %13, align 8, !tbaa !29
  %15 = tail call i32 @ossl_qrl_enc_level_set_provide_secret(ptr noundef nonnull %9, ptr noundef %10, ptr noundef %12, i32 noundef %1, i32 noundef %2, ptr noundef %3, ptr noundef %4, i64 noundef %5, i8 noundef zeroext %14, i32 noundef 0) #11
  %.not = icmp eq i32 %15, 0
  br i1 %.not, label %qrx_requeue_deferred.exit, label %16

16:                                               ; preds = %8
  %17 = getelementptr inbounds nuw i8, ptr %0, i64 72
  %.val6.i = load ptr, ptr %17, align 8, !tbaa !48
  %.not7.i = icmp eq ptr %.val6.i, null
  br i1 %.not7.i, label %qrx_requeue_deferred.exit, label %.lr.ph.i

.lr.ph.i:                                         ; preds = %16
  %18 = getelementptr inbounds nuw i8, ptr %0, i64 80
  %19 = getelementptr inbounds nuw i8, ptr %0, i64 88
  %20 = getelementptr inbounds nuw i8, ptr %0, i64 48
  %21 = getelementptr inbounds nuw i8, ptr %0, i64 56
  %22 = getelementptr inbounds nuw i8, ptr %0, i64 64
  br label %23

23:                                               ; preds = %ossl_list_urxe_insert_tail.exit.i, %.lr.ph.i
  %.val8.i = phi ptr [ %.val6.i, %.lr.ph.i ], [ %.val.i, %ossl_list_urxe_insert_tail.exit.i ]
  %24 = load ptr, ptr %.val8.i, align 8, !tbaa !49
  store ptr %24, ptr %17, align 8, !tbaa !48
  %25 = load ptr, ptr %18, align 8, !tbaa !52
  %26 = icmp eq ptr %25, %.val8.i
  %27 = getelementptr inbounds nuw i8, ptr %.val8.i, i64 8
  %28 = load ptr, ptr %27, align 8, !tbaa !53
  br i1 %26, label %29, label %._crit_edge.i.i

29:                                               ; preds = %23
  store ptr %28, ptr %18, align 8, !tbaa !52
  br label %._crit_edge.i.i

._crit_edge.i.i:                                  ; preds = %29, %23
  %.not.i.i = icmp eq ptr %28, null
  br i1 %.not.i.i, label %31, label %30

30:                                               ; preds = %._crit_edge.i.i
  store ptr %24, ptr %28, align 8, !tbaa !49
  br label %31

31:                                               ; preds = %30, %._crit_edge.i.i
  %.not18.i.i = icmp eq ptr %24, null
  br i1 %.not18.i.i, label %ossl_list_urxe_remove.exit.i, label %32

32:                                               ; preds = %31
  %33 = getelementptr inbounds nuw i8, ptr %24, i64 8
  store ptr %28, ptr %33, align 8, !tbaa !53
  br label %ossl_list_urxe_remove.exit.i

ossl_list_urxe_remove.exit.i:                     ; preds = %32, %31
  %34 = load i64, ptr %19, align 8, !tbaa !54
  %35 = add i64 %34, -1
  store i64 %35, ptr %19, align 8, !tbaa !54
  tail call void @llvm.memset.p0.i64(ptr noundef nonnull align 8 dereferenceable(16) %.val8.i, i8 0, i64 16, i1 false)
  %36 = load ptr, ptr %21, align 8, !tbaa !52
  %.not.i5.i = icmp eq ptr %36, null
  br i1 %.not.i5.i, label %38, label %37

37:                                               ; preds = %ossl_list_urxe_remove.exit.i
  store ptr %.val8.i, ptr %36, align 8, !tbaa !49
  br label %38

38:                                               ; preds = %37, %ossl_list_urxe_remove.exit.i
  store ptr %36, ptr %27, align 8, !tbaa !53
  store ptr null, ptr %.val8.i, align 8, !tbaa !49
  store ptr %.val8.i, ptr %21, align 8, !tbaa !52
  %39 = load ptr, ptr %20, align 8, !tbaa !48
  %40 = icmp eq ptr %39, null
  br i1 %40, label %41, label %ossl_list_urxe_insert_tail.exit.i

41:                                               ; preds = %38
  store ptr %.val8.i, ptr %20, align 8, !tbaa !48
  br label %ossl_list_urxe_insert_tail.exit.i

ossl_list_urxe_insert_tail.exit.i:                ; preds = %41, %38
  %42 = load i64, ptr %22, align 8, !tbaa !54
  %43 = add i64 %42, 1
  store i64 %43, ptr %22, align 8, !tbaa !54
  %.val.i = load ptr, ptr %17, align 8, !tbaa !48
  %.not.i = icmp eq ptr %.val.i, null
  br i1 %.not.i, label %qrx_requeue_deferred.exit, label %23, !llvm.loop !62

qrx_requeue_deferred.exit:                        ; preds = %ossl_list_urxe_insert_tail.exit.i, %16, %8, %6
  %.0 = phi i32 [ 0, %6 ], [ 0, %8 ], [ 1, %16 ], [ 1, %ossl_list_urxe_insert_tail.exit.i ]
  ret i32 %.0
}